target datalayout = "e-m:e-p270:32:32-p271:32:32-p272:64:64-i64:64-i128:128-f80:128-n8:16:32:64-S128"
target triple = "x86_64-pc-linux-gnu"

%struct.Llb_Mtr_t_ = type { i32, i32, i32, i32, ptr, ptr, ptr, ptr, ptr, ptr, ptr }

; Function Attrs: nounwind uwtable
define void @Llb_MtrSwapColumns(ptr noundef %0, i32 noundef %1, i32 noundef %2) #0 {
  %4 = alloca ptr, align 8
  %5 = alloca i32, align 4
  %6 = alloca i32, align 4
  %7 = alloca ptr, align 8
  %8 = alloca ptr, align 8
  %9 = alloca i32, align 4
  %10 = alloca i32, align 4
  store ptr %0, ptr %4, align 8, !tbaa !3
  store i32 %1, ptr %5, align 4, !tbaa !8
  store i32 %2, ptr %6, align 4, !tbaa !8
  call void @llvm.lifetime.start.p0(i64 8, ptr %7) #7
  call void @llvm.lifetime.start.p0(i64 8, ptr %8) #7
  call void @llvm.lifetime.start.p0(i64 4, ptr %9) #7
  %11 = load i32, ptr %5, align 4, !tbaa !8
  %12 = load i32, ptr %6, align 4, !tbaa !8
  %13 = icmp eq i32 %11, %12
  br i1 %13, label %14, label %15

14:                                               ; preds = %3
  store i32 1, ptr %10, align 4
  br label %97

15:                                               ; preds = %3
  %16 = load ptr, ptr %4, align 8, !tbaa !3
  %17 = getelementptr inbounds nuw %struct.Llb_Mtr_t_, ptr %16, i32 0, i32 5
  %18 = load ptr, ptr %17, align 8, !tbaa !10
  %19 = load i32, ptr %5, align 4, !tbaa !8
  %20 = sext i32 %19 to i64
  %21 = getelementptr inbounds ptr, ptr %18, i64 %20
  %22 = load ptr, ptr %21, align 8, !tbaa !17
  store ptr %22, ptr %7, align 8, !tbaa !17
  %23 = load ptr, ptr %4, align 8, !tbaa !3
  %24 = getelementptr inbounds nuw %struct.Llb_Mtr_t_, ptr %23, i32 0, i32 5
  %25 = load ptr, ptr %24, align 8, !tbaa !10
  %26 = load i32, ptr %6, align 4, !tbaa !8
  %27 = sext i32 %26 to i64
  %28 = getelementptr inbounds ptr, ptr %25, i64 %27
  %29 = load ptr, ptr %28, align 8, !tbaa !17
  %30 = load ptr, ptr %4, align 8, !tbaa !3
  %31 = getelementptr inbounds nuw %struct.Llb_Mtr_t_, ptr %30, i32 0, i32 5
  %32 = load ptr, ptr %31, align 8, !tbaa !10
  %33 = load i32, ptr %5, align 4, !tbaa !8
  %34 = sext i32 %33 to i64
  %35 = getelementptr inbounds ptr, ptr %32, i64 %34
  store ptr %29, ptr %35, align 8, !tbaa !17
  %36 = load ptr, ptr %7, align 8, !tbaa !17
  %37 = load ptr, ptr %4, align 8, !tbaa !3
  %38 = getelementptr inbounds nuw %struct.Llb_Mtr_t_, ptr %37, i32 0, i32 5
  %39 = load ptr, ptr %38, align 8, !tbaa !10
  %40 = load i32, ptr %6, align 4, !tbaa !8
  %41 = sext i32 %40 to i64
  %42 = getelementptr inbounds ptr, ptr %39, i64 %41
  store ptr %36, ptr %42, align 8, !tbaa !17
  %43 = load ptr, ptr %4, align 8, !tbaa !3
  %44 = getelementptr inbounds nuw %struct.Llb_Mtr_t_, ptr %43, i32 0, i32 7
  %45 = load ptr, ptr %44, align 8, !tbaa !19
  %46 = load i32, ptr %5, align 4, !tbaa !8
  %47 = sext i32 %46 to i64
  %48 = getelementptr inbounds ptr, ptr %45, i64 %47
  %49 = load ptr, ptr %48, align 8, !tbaa !20
  store ptr %49, ptr %8, align 8, !tbaa !20
  %50 = load ptr, ptr %4, align 8, !tbaa !3
  %51 = getelementptr inbounds nuw %struct.Llb_Mtr_t_, ptr %50, i32 0, i32 7
  %52 = load ptr, ptr %51, align 8, !tbaa !19
  %53 = load i32, ptr %6, align 4, !tbaa !8
  %54 = sext i32 %53 to i64
  %55 = getelementptr inbounds ptr, ptr %52, i64 %54
  %56 = load ptr, ptr %55, align 8, !tbaa !20
  %57 = load ptr, ptr %4, align 8, !tbaa !3
  %58 = getelementptr inbounds nuw %struct.Llb_Mtr_t_, ptr %57, i32 0, i32 7
  %59 = load ptr, ptr %58, align 8, !tbaa !19
  %60 = load i32, ptr %5, align 4, !tbaa !8
  %61 = sext i32 %60 to i64
  %62 = getelementptr inbounds ptr, ptr %59, i64 %61
  store ptr %56, ptr %62, align 8, !tbaa !20
  %63 = load ptr, ptr %8, align 8, !tbaa !20
  %64 = load ptr, ptr %4, align 8, !tbaa !3
  %65 = getelementptr inbounds nuw %struct.Llb_Mtr_t_, ptr %64, i32 0, i32 7
  %66 = load ptr, ptr %65, align 8, !tbaa !19
  %67 = load i32, ptr %6, align 4, !tbaa !8
  %68 = sext i32 %67 to i64
  %69 = getelementptr inbounds ptr, ptr %66, i64 %68
  store ptr %63, ptr %69, align 8, !tbaa !20
  %70 = load ptr, ptr %4, align 8, !tbaa !3
  %71 = getelementptr inbounds nuw %struct.Llb_Mtr_t_, ptr %70, i32 0, i32 4
  %72 = load ptr, ptr %71, align 8, !tbaa !21
  %73 = load i32, ptr %5, align 4, !tbaa !8
  %74 = sext i32 %73 to i64
  %75 = getelementptr inbounds i32, ptr %72, i64 %74
  %76 = load i32, ptr %75, align 4, !tbaa !8
  store i32 %76, ptr %9, align 4, !tbaa !8
  %77 = load ptr, ptr %4, align 8, !tbaa !3
  %78 = getelementptr inbounds nuw %struct.Llb_Mtr_t_, ptr %77, i32 0, i32 4
  %79 = load ptr, ptr %78, align 8, !tbaa !21
  %80 = load i32, ptr %6, align 4, !tbaa !8
  %81 = sext i32 %80 to i64
  %82 = getelementptr inbounds i32, ptr %79, i64 %81
  %83 = load i32, ptr %82, align 4, !tbaa !8
  %84 = load ptr, ptr %4, align 8, !tbaa !3
  %85 = getelementptr inbounds nuw %struct.Llb_Mtr_t_, ptr %84, i32 0, i32 4
  %86 = load ptr, ptr %85, align 8, !tbaa !21
  %87 = load i32, ptr %5, align 4, !tbaa !8
  %88 = sext i32 %87 to i64
  %89 = getelementptr inbounds i32, ptr %86, i64 %88
  store i32 %83, ptr %89, align 4, !tbaa !8
  %90 = load i32, ptr %9, align 4, !tbaa !8
  %91 = load ptr, ptr %4, align 8, !tbaa !3
  %92 = getelementptr inbounds nuw %struct.Llb_Mtr_t_, ptr %91, i32 0, i32 4
  %93 = load ptr, ptr %92, align 8, !tbaa !21
  %94 = load i32, ptr %6, align 4, !tbaa !8
  %95 = sext i32 %94 to i64
  %96 = getelementptr inbounds i32, ptr %93, i64 %95
  store i32 %90, ptr %96, align 4, !tbaa !8
  store i32 0, ptr %10, align 4
  br label %97

97:                                               ; preds = %15, %14
  call void @llvm.lifetime.end.p0(i64 4, ptr %9) #7
  call void @llvm.lifetime.end.p0(i64 8, ptr %8) #7
  call void @llvm.lifetime.end.p0(i64 8, ptr %7) #7
  %98 = load i32, ptr %10, align 4
  switch i32 %98, label %100 [
    i32 0, label %99
    i32 1, label %99
  ]

99:                                               ; preds = %97, %97
  ret void

100:                                              ; preds = %97
  unreachable
}