; Function Attrs: mustprogress nofree norecurse nosync nounwind willreturn memory(readwrite, inaccessiblemem: none) uwtable
define void @Llb_MtrSwapColumns(ptr noundef readonly captures(none) %0, i32 noundef %1, i32 noundef %2) local_unnamed_addr #0 {
  %4 = icmp eq i32 %1, %2
  br i1 %4, label %26, label %5

5:                                                ; preds = %3
  %6 = getelementptr inbounds nuw i8, ptr %0, i64 24
  %7 = load ptr, ptr %6, align 8, !tbaa !3
  %8 = sext i32 %1 to i64
  %9 = getelementptr inbounds ptr, ptr %7, i64 %8
  %10 = load ptr, ptr %9, align 8, !tbaa !14
  %11 = sext i32 %2 to i64
  %12 = getelementptr inbounds ptr, ptr %7, i64 %11
  %13 = load ptr, ptr %12, align 8, !tbaa !14
  store ptr %13, ptr %9, align 8, !tbaa !14
  store ptr %10, ptr %12, align 8, !tbaa !14
  %14 = getelementptr inbounds nuw i8, ptr %0, i64 40
  %15 = load ptr, ptr %14, align 8, !tbaa !16
  %16 = getelementptr inbounds ptr, ptr %15, i64 %8
  %17 = load ptr, ptr %16, align 8, !tbaa !17
  %18 = getelementptr inbounds ptr, ptr %15, i64 %11
  %19 = load ptr, ptr %18, align 8, !tbaa !17
  store ptr %19, ptr %16, align 8, !tbaa !17
  store ptr %17, ptr %18, align 8, !tbaa !17
  %20 = getelementptr inbounds nuw i8, ptr %0, i64 16
  %21 = load ptr, ptr %20, align 8, !tbaa !18
  %22 = getelementptr inbounds i32, ptr %21, i64 %8
  %23 = load i32, ptr %22, align 4, !tbaa !19
  %24 = getelementptr inbounds i32, ptr %21, i64 %11
  %25 = load i32, ptr %24, align 4, !tbaa !19
  store i32 %25, ptr %22, align 4, !tbaa !19
  store i32 %23, ptr %24, align 4, !tbaa !19
  br label %26

26:                                               ; preds = %3, %5
  ret void
}